Certificate:
    Data:
        Version: 3 (0x2)
        Serial Number: 1 (0x1)
    Signature Algorithm: sha256WithRSAEncryption
        Issuer: C=CN, ST=SH, L=SH, O=douins, OU=douins, CN=moz.douins.com/emailAddress=douins
        Validity
            Not Before: Apr 28 08:10:54 2016 GMT
            Not After : Apr 28 08:10:54 2017 GMT
        Subject: C=CN, ST=SH, O=douins, OU=douins, CN=moz.douins.com/emailAddress=douins
        Subject Public Key Info:
            Public Key Algorithm: rsaEncryption
                Public-Key: (4096 bit)
                Modulus:
                    00:af:0f:ba:7a:55:89:2a:c6:2d:ad:4b:15:05:aa:
                    19:e2:b6:59:5c:81:db:f9:ef:36:46:81:f5:29:28:
                    63:ac:b0:1e:cf:8e:b4:3e:31:8b:aa:79:df:41:0b:
                    9d:d6:f5:e2:16:21:e4:76:e7:25:b4:f9:04:60:b2:
                    41:e2:32:2e:b5:e5:e4:0f:86:4b:a5:d9:0a:fe:db:
                    c7:2c:5e:6c:db:7c:e9:b8:c4:5b:f5:b3:a3:a7:d4:
                    fb:0d:68:5a:57:8e:de:e0:c3:54:21:f7:5c:81:47:
                    32:75:22:d4:d1:77:70:a5:84:5b:e1:45:81:c2:c5:
                    e9:41:7d:84:c3:fe:a9:a7:68:fd:0e:94:b9:fc:24:
                    53:aa:34:d0:23:72:0f:02:bf:7e:52:12:b0:c5:4b:
                    96:26:db:93:3f:e1:9c:fd:dd:82:c3:98:61:b0:47:
                    e6:3f:d1:e9:3c:44:55:79:8a:24:60:5b:9c:57:93:
                    40:f7:52:1a:c3:14:8e:09:d5:fd:36:4d:9d:5d:8a:
                    7a:4b:39:0c:bd:2b:41:f6:0e:1b:aa:89:99:e8:f4:
                    d4:87:94:67:05:ac:95:6f:57:fd:ae:db:6e:65:79:
                    be:08:91:12:10:19:99:5e:68:fd:fd:71:65:6f:63:
                    e8:b8:f8:ea:a8:17:79:18:e5:8c:9a:a0:d5:60:ec:
                    b9:43:d2:2c:64:4c:1b:6a:69:95:40:e8:53:a5:4e:
                    c1:45:20:2c:96:ee:39:c4:8e:4b:10:e7:0f:d2:33:
                    a8:ef:83:cb:96:db:ee:5c:76:e3:38:96:70:d7:7b:
                    4b:e3:6b:4e:7e:c4:65:98:77:f5:21:b1:20:99:60:
                    74:9f:77:39:4a:b7:ec:c4:30:7e:24:4f:80:6c:e5:
                    4a:72:4e:2b:c8:86:69:ca:33:a3:1f:bf:aa:33:81:
                    a3:9d:b5:e1:8b:90:83:2f:d4:71:00:7a:d0:c4:d8:
                    35:91:b9:6b:c6:ed:d3:59:f5:f9:ed:ee:bc:f8:27:
                    f6:f1:9e:cb:60:a2:fb:d6:75:f1:30:dc:57:60:0a:
                    18:fc:ce:d8:c0:df:d6:ed:ca:44:8d:7b:88:a9:d3:
                    3c:27:98:06:02:07:87:f0:fe:a7:26:c7:fb:7c:94:
                    cc:3c:fd:38:e5:2f:ec:17:cd:00:cc:68:89:9b:97:
                    13:cf:61:04:ff:25:e1:f1:00:6f:75:a6:53:87:0b:
                    f4:a6:eb:43:e1:e9:a2:b3:cb:f2:ec:a6:cf:54:ee:
                    ed:f3:80:04:bc:c3:78:f7:1d:04:ef:00:89:36:92:
                    a4:8e:d6:a9:02:dd:f0:9d:27:32:ba:45:5a:bd:fa:
                    d4:6e:b0:c0:ca:f7:47:8f:bd:01:4e:09:c5:d8:2d:
                    03:dd:17
                Exponent: 65537 (0x10001)
        X509v3 extensions:
            X509v3 Basic Constraints: 
                CA:FALSE
            Netscape Comment: 
                OpenSSL Generated Certificate
            X509v3 Subject Key Identifier: 
                61:27:2D:95:7E:11:1C:9B:F6:27:60:81:A9:0E:00:E5:C6:E9:1F:D7
            X509v3 Authority Key Identifier: 
                keyid:09:FE:8D:09:67:01:75:8C:96:0D:78:22:D4:7D:1F:94:76:A7:DA:FC

    Signature Algorithm: sha256WithRSAEncryption
         00:af:e5:5e:71:dc:5e:fd:66:c5:09:e4:5f:82:d3:aa:d9:b8:
         ff:e5:f8:61:fd:b2:cf:11:8e:92:2f:cc:5b:b0:2a:68:2d:06:
         3b:eb:e4:30:77:70:9e:d8:9f:4b:e8:17:b7:e1:cc:28:63:81:
         ae:45:50:1f:0d:9b:98:0b:b4:d0:3c:1a:1e:bf:9b:80:90:14:
         d7:65:b1:e0:cc:c6:ad:7c:d0:96:ba:75:57:63:9e:7e:7c:e2:
         d4:70:9b:88:4e:1e:7a:a9:d1:12:48:93:05:18:ae:f0:b6:ff:
         0b:5f:34:59:8b:de:4a:a0:28:a4:a3:26:9c:0c:11:9f:16:29:
         cf:dd:56:ba:70:dc:05:5d:f2:cb:40:e7:66:1d:ab:cd:71:45:
         43:6c:4e:8b:9d:cb:3b:ac:48:e3:35:02:12:d2:ad:d2:96:6f:
         29:e6:70:a6:0e:e8:e9:94:97:16:30:3c:66:90:d2:5d:6e:ca:
         9d:6b:cd:87:11:80:62:b5:46:91:e4:ad:5d:8d:21:49:f3:4f:
         59:3d:70:65:51:c9:c2:98:a7:f4:b5:d8:78:de:61:60:a7:49:
         5c:78:88:36:d1:ca:a5:89:69:ce:08:4b:2c:64:76:0b:bd:6e:
         05:03:9e:28:68:42:c6:b7:f6:dd:c7:70:42:26:f3:cb:63:0c:
         cc:a6:e8:d5:11:a0:9a:f1:b4:a5:ef:86:4f:0b:2e:28:f7:8e:
         e6:7f:c1:86:b0:82:0c:2c:43:92:a3:bc:3a:f3:f9:65:3e:9d:
         a0:dd:e1:17:24:d2:d1:a7:ed:f0:58:0c:db:d7:60:84:3c:73:
         de:15:6b:ed:9d:cf:da:03:76:6b:f5:05:0a:f0:17:9e:f1:65:
         5b:4f:eb:7d:2e:3f:d2:54:e2:74:a9:48:6d:27:d8:16:95:6f:
         39:c7:96:5b:c9:c4:c0:34:1c:c0:b7:e0:8b:ec:33:38:8d:36:
         6a:0e:e8:fb:f8:a1:58:3f:fc:1b:19:d9:6a:c0:e7:65:84:59:
         30:95:9e:d1:d6:16:89:51:42:e7:35:3e:69:5e:8a:12:90:52:
         60:6f:3f:48:d0:26:98:2c:7b:d9:05:51:0d:ec:8e:c8:b1:49:
         92:ff:b2:08:b8:0d:f6:4c:56:e8:41:77:62:ca:4e:1c:0a:c9:
         d8:3e:03:9d:10:99:66:c9:89:48:63:5f:0a:d2:ff:2c:93:74:
         3b:a5:4c:e7:5b:43:aa:c7:73:dc:db:de:02:4b:5c:5b:d0:07:
         da:21:4d:cd:87:ad:08:b6:39:6d:76:b9:71:c7:c4:8e:1d:63:
         d2:a7:a9:97:39:bb:7a:dd:72:00:aa:44:2b:35:1f:8f:ff:b7:
         c3:0d:94:2d:e5:b2:33:90
-----BEGIN CERTIFICATE-----
MIIF2zCCA8OgAwIBAgIBATANBgkqhkiG9w0BAQsFADB5MQswCQYDVQQGEwJDTjEL
MAkGA1UECAwCU0gxCzAJBgNVBAcMAlNIMQ8wDQYDVQQKDAZkb3VpbnMxDzANBgNV
BAsMBmRvdWluczEXMBUGA1UEAwwObW96LmRvdWlucy5jb20xFTATBgkqhkiG9w0B
CQEWBmRvdWluczAeFw0xNjA0MjgwODEwNTRaFw0xNzA0MjgwODEwNTRaMGwxCzAJ
BgNVBAYTAkNOMQswCQYDVQQIDAJTSDEPMA0GA1UECgwGZG91aW5zMQ8wDQYDVQQL
DAZkb3VpbnMxFzAVBgNVBAMMDm1vei5kb3VpbnMuY29tMRUwEwYJKoZIhvcNAQkB
FgZkb3VpbnMwggIiMA0GCSqGSIb3DQEBAQUAA4ICDwAwggIKAoICAQCvD7p6VYkq
xi2tSxUFqhnitllcgdv57zZGgfUpKGOssB7PjrQ+MYuqed9BC53W9eIWIeR25yW0
+QRgskHiMi615eQPhkul2Qr+28csXmzbfOm4xFv1s6On1PsNaFpXjt7gw1Qh91yB
RzJ1ItTRd3ClhFvhRYHCxelBfYTD/qmnaP0OlLn8JFOqNNAjcg8Cv35SErDFS5Ym
25M/4Zz93YLDmGGwR+Y/0ek8RFV5iiRgW5xXk0D3UhrDFI4J1f02TZ1dinpLOQy9
K0H2DhuqiZno9NSHlGcFrJVvV/2u225leb4IkRIQGZleaP39cWVvY+i4+OqoF3kY
5YyaoNVg7LlD0ixkTBtqaZVA6FOlTsFFICyW7jnEjksQ5w/SM6jvg8uW2+5cduM4
lnDXe0vja05+xGWYd/UhsSCZYHSfdzlKt+zEMH4kT4Bs5UpyTivIhmnKM6Mfv6oz
gaOdteGLkIMv1HEAetDE2DWRuWvG7dNZ9fnt7rz4J/bxnstgovvWdfEw3FdgChj8
ztjA39btykSNe4ip0zwnmAYCB4fw/qcmx/t8lMw8/TjlL+wXzQDMaImblxPPYQT/
JeHxAG91plOHC/Sm60Ph6aKzy/Lsps9U7u3zgAS8w3j3HQTvAIk2kqSO1qkC3fCd
JzK6RVq9+tRusMDK90ePvQFOCcXYLQPdFwIDAQABo3sweTAJBgNVHRMEAjAAMCwG
CWCGSAGG+EIBDQQfFh1PcGVuU1NMIEdlbmVyYXRlZCBDZXJ0aWZpY2F0ZTAdBgNV
HQ4EFgQUYSctlX4RHJv2J2CBqQ4A5cbpH9cwHwYDVR0jBBgwFoAUCf6NCWcBdYyW
DXgi1H0flHan2vwwDQYJKoZIhvcNAQELBQADggIBAACv5V5x3F79ZsUJ5F+C06rZ
uP/l+GH9ss8RjpIvzFuwKmgtBjvr5DB3cJ7Yn0voF7fhzChjga5FUB8Nm5gLtNA8
Gh6/m4CQFNdlseDMxq180Ja6dVdjnn584tRwm4hOHnqp0RJIkwUYrvC2/wtfNFmL
3kqgKKSjJpwMEZ8WKc/dVrpw3AVd8stA52Ydq81xRUNsToudyzusSOM1AhLSrdKW
bynmcKYO6OmUlxYwPGaQ0l1uyp1rzYcRgGK1RpHkrV2NIUnzT1k9cGVRycKYp/S1
2HjeYWCnSVx4iDbRyqWJac4ISyxkdgu9bgUDnihoQsa39t3HcEIm88tjDMym6NUR
oJrxtKXvhk8LLij3juZ/wYawggwsQ5KjvDrz+WU+naDd4Rck0tGn7fBYDNvXYIQ8
c94Va+2dz9oDdmv1BQrwF57xZVtP630uP9JU4nSpSG0n2BaVbznHllvJxMA0HMC3
4IvsMziNNmoO6Pv4oVg//BsZ2WrA52WEWTCVntHWFolRQuc1PmleihKQUmBvP0jQ
Jpgse9kFUQ3sjsixSZL/sgi4DfZMVuhBd2LKThwKydg+A50QmWbJiUhjXwrS/yyT
dDulTOdbQ6rHc9zb3gJLXFvQB9ohTc2HrQi2OW12uXHHxI4dY9KnqZc5u3rdcgCq
RCs1H4//t8MNlC3lsjOQ
-----END CERTIFICATE-----
